target datalayout = "e-m:e-p270:32:32-p271:32:32-p272:64:64-i64:64-i128:128-f80:128-n8:16:32:64-S128"
target triple = "x86_64-pc-linux-gnu"

%"class.cv::utils::trace::details::Region" = type <{ ptr, i32, [4 x i8] }>
%"class.std::__cxx11::basic_string" = type { %"struct.std::__cxx11::basic_string<char>::_Alloc_hider", i64, %union.anon }
%"struct.std::__cxx11::basic_string<char>::_Alloc_hider" = type { ptr }
%union.anon = type { i64, [8 x i8] }
%"class.std::allocator" = type { i8 }

@.str.1 = private unnamed_addr constant [130 x i8] c"generated/home/dtcxzyw/WorkSpace/Projects/compilers/llvm-opt-benchmark/bench/opencv/opencv/modules/imgproc/src/color_yuv.simd.hpp\00", align 1
@.str.4 = private unnamed_addr constant [42 x i8] c"Unknown/unsupported color conversion code\00", align 1
@__func__._ZN2cv3hal12cpu_baseline19cvtOnePlaneYUVtoBGREPKhmPhmiiibii = private unnamed_addr constant [20 x i8] c"cvtOnePlaneYUVtoBGR\00", align 1

; Function Attrs: mustprogress uwtable
define hidden void @_ZN2cv3hal12cpu_baseline19cvtOnePlaneYUVtoBGREPKhmPhmiiibii(ptr noundef %0, i64 noundef %1, ptr noundef %2, i64 noundef %3, i32 noundef %4, i32 noundef %5, i32 noundef %6, i1 noundef zeroext %7, i32 noundef %8, i32 noundef %9) #0 personality ptr @__gxx_personality_v0 {
  %11 = alloca ptr, align 8
  %12 = alloca i64, align 8
  %13 = alloca ptr, align 8
  %14 = alloca i64, align 8
  %15 = alloca i32, align 4
  %16 = alloca i32, align 4
  %17 = alloca i32, align 4
  %18 = alloca i8, align 1
  %19 = alloca i32, align 4
  %20 = alloca i32, align 4
  %21 = alloca %"class.cv::utils::trace::details::Region", align 8
  %22 = alloca ptr, align 8
  %23 = alloca i32, align 4
  %24 = alloca %"class.std::__cxx11::basic_string", align 8
  %25 = alloca %"class.std::allocator", align 1
  %26 = alloca ptr, align 8
  %27 = alloca i32, align 4
  store ptr %0, ptr %11, align 8
  store i64 %1, ptr %12, align 8
  store ptr %2, ptr %13, align 8
  store i64 %3, ptr %14, align 8
  store i32 %4, ptr %15, align 4
  store i32 %5, ptr %16, align 4
  store i32 %6, ptr %17, align 4
  %28 = zext i1 %7 to i8
  store i8 %28, ptr %18, align 1
  store i32 %8, ptr %19, align 4
  store i32 %9, ptr %20, align 4
  call void @_ZN2cv5utils5trace7details6RegionC1ERKNS3_21LocationStaticStorageE(ptr noundef nonnull align 8 dereferenceable(12) %21, ptr noundef nonnull align 8 dereferenceable(32) @_ZZN2cv3hal12cpu_baseline19cvtOnePlaneYUVtoBGREPKhmPhmiiibiiE26__cv_trace_location_fn2144)
  %29 = load i8, ptr %18, align 1
  %30 = trunc i8 %29 to i1
  %31 = select i1 %30, i32 2, i32 0
  store i32 %31, ptr %23, align 4
  %32 = load i32, ptr %17, align 4
  %33 = mul nsw i32 %32, 1000
  %34 = load i32, ptr %23, align 4
  %35 = mul nsw i32 %34, 100
  %36 = add nsw i32 %33, %35
  %37 = load i32, ptr %19, align 4
  %38 = mul nsw i32 %37, 10
  %39 = add nsw i32 %36, %38
  %40 = load i32, ptr %20, align 4
  %41 = add nsw i32 %39, %40
  switch i32 %41, label %54 [
    i32 3000, label %42
    i32 3001, label %43
    i32 3010, label %44
    i32 3200, label %45
    i32 3201, label %46
    i32 3210, label %47
    i32 4000, label %48
    i32 4001, label %49
    i32 4010, label %50
    i32 4200, label %51
    i32 4201, label %52
    i32 4210, label %53
  ]

42:                                               ; preds = %10
  store ptr @_ZN2cv3hal12cpu_baseline12_GLOBAL__N_114cvtYUV422toRGBILi0ELi0ELi0ELi3EEEvPhmPKhmii, ptr %22, align 8
  br label %66

43:                                               ; preds = %10
  store ptr @_ZN2cv3hal12cpu_baseline12_GLOBAL__N_114cvtYUV422toRGBILi0ELi0ELi1ELi3EEEvPhmPKhmii, ptr %22, align 8
  br label %66

44:                                               ; preds = %10
  store ptr @_ZN2cv3hal12cpu_baseline12_GLOBAL__N_114cvtYUV422toRGBILi0ELi1ELi0ELi3EEEvPhmPKhmii, ptr %22, align 8
  br label %66

45:                                               ; preds = %10
  store ptr @_ZN2cv3hal12cpu_baseline12_GLOBAL__N_114cvtYUV422toRGBILi2ELi0ELi0ELi3EEEvPhmPKhmii, ptr %22, align 8
  br label %66

46:                                               ; preds = %10
  store ptr @_ZN2cv3hal12cpu_baseline12_GLOBAL__N_114cvtYUV422toRGBILi2ELi0ELi1ELi3EEEvPhmPKhmii, ptr %22, align 8
  br label %66

47:                                               ; preds = %10
  store ptr @_ZN2cv3hal12cpu_baseline12_GLOBAL__N_114cvtYUV422toRGBILi2ELi1ELi0ELi3EEEvPhmPKhmii, ptr %22, align 8
  br label %66

48:                                               ; preds = %10
  store ptr @_ZN2cv3hal12cpu_baseline12_GLOBAL__N_114cvtYUV422toRGBILi0ELi0ELi0ELi4EEEvPhmPKhmii, ptr %22, align 8
  br label %66

49:                                               ; preds = %10
  store ptr @_ZN2cv3hal12cpu_baseline12_GLOBAL__N_114cvtYUV422toRGBILi0ELi0ELi1ELi4EEEvPhmPKhmii, ptr %22, align 8
  br label %66

50:                                               ; preds = %10
  store ptr @_ZN2cv3hal12cpu_baseline12_GLOBAL__N_114cvtYUV422toRGBILi0ELi1ELi0ELi4EEEvPhmPKhmii, ptr %22, align 8
  br label %66

51:                                               ; preds = %10
  store ptr @_ZN2cv3hal12cpu_baseline12_GLOBAL__N_114cvtYUV422toRGBILi2ELi0ELi0ELi4EEEvPhmPKhmii, ptr %22, align 8
  br label %66

52:                                               ; preds = %10
  store ptr @_ZN2cv3hal12cpu_baseline12_GLOBAL__N_114cvtYUV422toRGBILi2ELi0ELi1ELi4EEEvPhmPKhmii, ptr %22, align 8
  br label %66

53:                                               ; preds = %10
  store ptr @_ZN2cv3hal12cpu_baseline12_GLOBAL__N_114cvtYUV422toRGBILi2ELi1ELi0ELi4EEEvPhmPKhmii, ptr %22, align 8
  br label %66

54:                                               ; preds = %10
  call void @_ZNSaIcEC1Ev(ptr noundef nonnull align 1 dereferenceable(1) %25) #10
  invoke void @_ZNSt7__cxx1112basic_stringIcSt11char_traitsIcESaIcEEC1EPKcRKS3_(ptr noundef nonnull align 8 dereferenceable(32) %24, ptr noundef @.str.4, ptr noundef nonnull align 1 dereferenceable(1) %25)
          to label %55 unwind label %57

55:                                               ; preds = %54
  invoke void @_ZN2cv5errorEiRKNSt7__cxx1112basic_stringIcSt11char_traitsIcESaIcEEEPKcS9_i(i32 noundef -206, ptr noundef nonnull align 8 dereferenceable(32) %24, ptr noundef @__func__._ZN2cv3hal12cpu_baseline19cvtOnePlaneYUVtoBGREPKhmPhmiiibii, ptr noundef @.str.1, i32 noundef 2162) #12
          to label %56 unwind label %61

56:                                               ; preds = %55
  unreachable

57:                                               ; preds = %54
  %58 = landingpad { ptr, i32 }
          cleanup
  %59 = extractvalue { ptr, i32 } %58, 0
  store ptr %59, ptr %26, align 8
  %60 = extractvalue { ptr, i32 } %58, 1
  store i32 %60, ptr %27, align 4
  br label %65

61:                                               ; preds = %55
  %62 = landingpad { ptr, i32 }
          cleanup
  %63 = extractvalue { ptr, i32 } %62, 0
  store ptr %63, ptr %26, align 8
  %64 = extractvalue { ptr, i32 } %62, 1
  store i32 %64, ptr %27, align 4
  call void @_ZNSt7__cxx1112basic_stringIcSt11char_traitsIcESaIcEED1Ev(ptr noundef nonnull align 8 dereferenceable(32) %24) #10
  br label %65

65:                                               ; preds = %61, %57
  call void @_ZNSaIcED1Ev(ptr noundef nonnull align 1 dereferenceable(1) %25) #10
  br label %79

66:                                               ; preds = %53, %52, %51, %50, %49, %48, %47, %46, %45, %44, %43, %42
  %67 = load ptr, ptr %22, align 8
  %68 = load ptr, ptr %13, align 8
  %69 = load i64, ptr %14, align 8
  %70 = load ptr, ptr %11, align 8
  %71 = load i64, ptr %12, align 8
  %72 = load i32, ptr %15, align 4
  %73 = load i32, ptr %16, align 4
  invoke void %67(ptr noundef %68, i64 noundef %69, ptr noundef %70, i64 noundef %71, i32 noundef %72, i32 noundef %73)
          to label %74 unwind label %75

74:                                               ; preds = %66
  call void @_ZN2cv5utils5trace7details6RegionD2Ev(ptr noundef nonnull align 8 dereferenceable(12) %21) #10
  ret void

75:                                               ; preds = %66
  %76 = landingpad { ptr, i32 }
          cleanup
  %77 = extractvalue { ptr, i32 } %76, 0
  store ptr %77, ptr %26, align 8
  %78 = extractvalue { ptr, i32 } %76, 1
  store i32 %78, ptr %27, align 4
  br label %79

79:                                               ; preds = %75, %65
  call void @_ZN2cv5utils5trace7details6RegionD2Ev(ptr noundef nonnull align 8 dereferenceable(12) %21) #10
  br label %80

80:                                               ; preds = %79
  %81 = load ptr, ptr %26, align 8
  %82 = load i32, ptr %27, align 4
  %83 = insertvalue { ptr, i32 } poison, ptr %81, 0
  %84 = insertvalue { ptr, i32 } %83, i32 %82, 1
  resume { ptr, i32 } %84
}